; ModuleID = '1/1604.c'
source_filename = "1/1604.c"
target datalayout = "e-m:e-p270:32:32-p271:32:32-p272:64:64-i64:64-f80:128-n8:16:32:64-S128"
target triple = "x86_64-pc-linux-gnu"

@.str = private unnamed_addr constant [3 x i8] c"%d\00", align 1
@.str.1 = private unnamed_addr constant [4 x i8] c"%d\0A\00", align 1

; Function Attrs: noinline nounwind uwtable
define dso_local i32 @factor(i32 %0, i32 %1) #0 {
  %3 = alloca i32, align 4
  %4 = alloca i32, align 4
  %5 = alloca i32, align 4
  %6 = alloca i32, align 4
  %7 = alloca i32, align 4
  store i32 %0, i32* %4, align 4
  store i32 %1, i32* %5, align 4
  store i32 1, i32* %6, align 4
  %8 = load i32, i32* %4, align 4
  %9 = load i32, i32* %5, align 4
  %10 = icmp slt i32 %8, %9
  br i1 %10, label %11, label %12

11:                                               ; preds = %2
  store i32 0, i32* %3, align 4
  br label %37

12:                                               ; preds = %2
  %13 = load i32, i32* %5, align 4
  store i32 %13, i32* %7, align 4
  br label %14

14:                                               ; preds = %32, %12
  %15 = load i32, i32* %7, align 4
  %16 = load i32, i32* %4, align 4
  %17 = icmp slt i32 %15, %16
  br i1 %17, label %18, label %35

18:                                               ; preds = %14
  %19 = load i32, i32* %4, align 4
  %20 = load i32, i32* %7, align 4
  %21 = srem i32 %19, %20
  %22 = icmp eq i32 %21, 0
  br i1 %22, label %23, label %31

23:                                               ; preds = %18
  %24 = load i32, i32* %6, align 4
  %25 = load i32, i32* %4, align 4
  %26 = load i32, i32* %7, align 4
  %27 = sdiv i32 %25, %26
  %28 = load i32, i32* %7, align 4
  %29 = call i32 @factor(i32 %27, i32 %28)
  %30 = add nsw i32 %24, %29
  store i32 %30, i32* %6, align 4
  br label %31

31:                                               ; preds = %23, %18
  br label %32

32:                                               ; preds = %31
  %33 = load i32, i32* %7, align 4
  %34 = add nsw i32 %33, 1
  store i32 %34, i32* %7, align 4
  br label %14

35:                                               ; preds = %14
  %36 = load i32, i32* %6, align 4
  store i32 %36, i32* %3, align 4
  br label %37

37:                                               ; preds = %35, %11
  %38 = load i32, i32* %3, align 4
  ret i32 %38
}

; Function Attrs: noinline nounwind uwtable
define dso_local i32 @main() #0 {
  %1 = alloca i32, align 4
  %2 = alloca i32, align 4
  %3 = alloca [100000 x i32], align 16
  %4 = alloca [100000 x i32], align 16
  %5 = alloca i32, align 4
  store i32 0, i32* %1, align 4
  %6 = call i32 (i8*, ...) @__isoc99_scanf(i8* getelementptr inbounds ([3 x i8], [3 x i8]* @.str, i64 0, i64 0), i32* %2)
  store i32 0, i32* %5, align 4
  br label %7

7:                                                ; preds = %30, %0
  %8 = load i32, i32* %5, align 4
  %9 = load i32, i32* %2, align 4
  %10 = sub nsw i32 %9, 1
  %11 = icmp sle i32 %8, %10
  br i1 %11, label %12, label %33

12:                                               ; preds = %7
  %13 = load i32, i32* %5, align 4
  %14 = sext i32 %13 to i64
  %15 = getelementptr inbounds [100000 x i32], [100000 x i32]* %3, i64 0, i64 %14
  %16 = call i32 (i8*, ...) @__isoc99_scanf(i8* getelementptr inbounds ([3 x i8], [3 x i8]* @.str, i64 0, i64 0), i32* %15)
  %17 = load i32, i32* %5, align 4
  %18 = sext i32 %17 to i64
  %19 = getelementptr inbounds [100000 x i32], [100000 x i32]* %3, i64 0, i64 %18
  %20 = load i32, i32* %19, align 4
  %21 = call i32 @factor(i32 %20, i32 2)
  %22 = load i32, i32* %5, align 4
  %23 = sext i32 %22 to i64
  %24 = getelementptr inbounds [100000 x i32], [100000 x i32]* %4, i64 0, i64 %23
  store i32 %21, i32* %24, align 4
  %25 = load i32, i32* %5, align 4
  %26 = sext i32 %25 to i64
  %27 = getelementptr inbounds [100000 x i32], [100000 x i32]* %4, i64 0, i64 %26
  %28 = load i32, i32* %27, align 4
  %29 = call i32 (i8*, ...) @printf(i8* getelementptr inbounds ([4 x i8], [4 x i8]* @.str.1, i64 0, i64 0), i32 %28)
  br label %30

30:                                               ; preds = %12
  %31 = load i32, i32* %5, align 4
  %32 = add nsw i32 %31, 1
  store i32 %32, i32* %5, align 4
  br label %7

33:                                               ; preds = %7
  ret i32 0
}

declare dso_local i32 @__isoc99_scanf(i8*, ...) #1

declare dso_local i32 @printf(i8*, ...) #1


!llvm.module.flags = !{!0}
!llvm.ident = !{!1}

!0 = !{i32 1, !"wchar_size", i32 4}
!1 = !{!"clang version 10.0.0-4ubuntu1 "}
